target datalayout = "e-m:e-p270:32:32-p271:32:32-p272:64:64-i64:64-i128:128-f80:128-n8:16:32:64-S128"
target triple = "x86_64-pc-linux-gnu"

%struct.cli_crt_t = type { ptr, [64 x i8], [64 x i8], [64 x i8], [20 x i8], [20 x i8], [20 x i8], i32, [64 x i8], ptr, ptr, ptr, i64, i64, i32, i32, i32, i32, i32, ptr, ptr }
%struct.crtmgr = type { ptr, i32 }

; Function Attrs: nounwind uwtable
define ptr @crtmgr_block_list_lookup(ptr noundef %0, ptr noundef %1) #0 {
  %3 = alloca ptr, align 8
  %4 = alloca ptr, align 8
  %5 = alloca ptr, align 8
  %6 = alloca ptr, align 8
  store ptr %0, ptr %4, align 8
  store ptr %1, ptr %5, align 8
  %7 = load ptr, ptr %4, align 8
  %8 = getelementptr inbounds %struct.crtmgr, ptr %7, i32 0, i32 0
  %9 = load ptr, ptr %8, align 8
  store ptr %9, ptr %6, align 8
  br label %10

10:                                               ; preds = %55, %2
  %11 = load ptr, ptr %6, align 8
  %12 = icmp ne ptr %11, null
  br i1 %12, label %13, label %59

13:                                               ; preds = %10
  %14 = load ptr, ptr %6, align 8
  %15 = getelementptr inbounds %struct.cli_crt_t, ptr %14, i32 0, i32 18
  %16 = load i32, ptr %15, align 8
  %17 = icmp ne i32 %16, 0
  br i1 %17, label %18, label %36

18:                                               ; preds = %13
  %19 = load ptr, ptr %6, align 8
  %20 = getelementptr inbounds %struct.cli_crt_t, ptr %19, i32 0, i32 4
  %21 = getelementptr inbounds [20 x i8], ptr %20, i64 0, i64 0
  %22 = load ptr, ptr %5, align 8
  %23 = getelementptr inbounds %struct.cli_crt_t, ptr %22, i32 0, i32 4
  %24 = getelementptr inbounds [20 x i8], ptr %23, i64 0, i64 0
  %25 = call i32 @memcmp(ptr noundef %21, ptr noundef %24, i64 noundef 20) #7
  %26 = icmp ne i32 %25, 0
  br i1 %26, label %36, label %27

27:                                               ; preds = %18
  %28 = load ptr, ptr %5, align 8
  %29 = getelementptr inbounds %struct.cli_crt_t, ptr %28, i32 0, i32 9
  %30 = load ptr, ptr %29, align 8
  %31 = load ptr, ptr %6, align 8
  %32 = getelementptr inbounds %struct.cli_crt_t, ptr %31, i32 0, i32 9
  %33 = load ptr, ptr %32, align 8
  %34 = call i32 @BN_cmp(ptr noundef %30, ptr noundef %33)
  %35 = icmp ne i32 %34, 0
  br i1 %35, label %36, label %37

36:                                               ; preds = %27, %18, %13
  br label %55

37:                                               ; preds = %27
  %38 = load ptr, ptr %6, align 8
  %39 = getelementptr inbounds %struct.cli_crt_t, ptr %38, i32 0, i32 7
  %40 = load i32, ptr %39, align 4
  %41 = icmp ne i32 %40, 0
  br i1 %41, label %53, label %42

42:                                               ; preds = %37
  %43 = load ptr, ptr %6, align 8
  %44 = getelementptr inbounds %struct.cli_crt_t, ptr %43, i32 0, i32 6
  %45 = getelementptr inbounds [20 x i8], ptr %44, i64 0, i64 0
  %46 = load ptr, ptr %5, align 8
  %47 = getelementptr inbounds %struct.cli_crt_t, ptr %46, i32 0, i32 6
  %48 = getelementptr inbounds [20 x i8], ptr %47, i64 0, i64 0
  %49 = call i32 @memcmp(ptr noundef %45, ptr noundef %48, i64 noundef 20) #7
  %50 = icmp ne i32 %49, 0
  br i1 %50, label %51, label %52

51:                                               ; preds = %42
  br label %55

52:                                               ; preds = %42
  br label %53

53:                                               ; preds = %52, %37
  %54 = load ptr, ptr %6, align 8
  store ptr %54, ptr %3, align 8
  br label %60

55:                                               ; preds = %51, %36
  %56 = load ptr, ptr %6, align 8
  %57 = getelementptr inbounds %struct.cli_crt_t, ptr %56, i32 0, i32 20
  %58 = load ptr, ptr %57, align 8
  store ptr %58, ptr %6, align 8
  br label %10

59:                                               ; preds = %10
  store ptr null, ptr %3, align 8
  br label %60

60:                                               ; preds = %59, %53
  %61 = load ptr, ptr %3, align 8
  ret ptr %61
}

; Function Attrs: nounwind uwtable
define ptr @crtmgr_lookup(ptr noundef %0, ptr noundef %1) #0 {
  %3 = alloca ptr, align 8
  %4 = alloca ptr, align 8
  %5 = alloca ptr, align 8
  store ptr %0, ptr %4, align 8
  store ptr %1, ptr %5, align 8
  %6 = load ptr, ptr %5, align 8
  %7 = getelementptr inbounds %struct.cli_crt_t, ptr %6, i32 0, i32 18
  %8 = load i32, ptr %7, align 8
  %9 = icmp ne i32 %8, 0
  br i1 %9, label %10, label %14

10:                                               ; preds = %2
  %11 = load ptr, ptr %4, align 8
  %12 = load ptr, ptr %5, align 8
  %13 = call ptr @crtmgr_block_list_lookup(ptr noundef %11, ptr noundef %12)
  store ptr %13, ptr %3, align 8
  br label %18

14:                                               ; preds = %2
  %15 = load ptr, ptr %4, align 8
  %16 = load ptr, ptr %5, align 8
  %17 = call ptr @crtmgr_trust_list_lookup(ptr noundef %15, ptr noundef %16, i32 noundef 0)
  store ptr %17, ptr %3, align 8
  br label %18

18:                                               ; preds = %14, %10
  %19 = load ptr, ptr %3, align 8
  ret ptr %19
}