; Function Attrs: nounwind uwtable
define ptr @crtmgr_lookup(ptr nocapture noundef readonly %0, ptr nocapture noundef readonly %1) local_unnamed_addr #0 {
  %3 = getelementptr inbounds i8, ptr %1, i64 384
  %4 = load i32, ptr %3, align 8
  %.not = icmp eq i32 %4, 0
  br i1 %.not, label %26, label %5

5:                                                ; preds = %2
  %.020.i = load ptr, ptr %0, align 8
  %.not21.i = icmp eq ptr %.020.i, null
  br i1 %.not21.i, label %crtmgr_block_list_lookup.exit, label %.lr.ph.i

.lr.ph.i:                                         ; preds = %5
  %6 = getelementptr inbounds i8, ptr %1, i64 200
  %7 = getelementptr inbounds i8, ptr %1, i64 328
  %8 = getelementptr inbounds i8, ptr %1, i64 240
  br label %9

9:                                                ; preds = %24, %.lr.ph.i
  %.022.i = phi ptr [ %.020.i, %.lr.ph.i ], [ %.0.i, %24 ]
  %10 = getelementptr inbounds i8, ptr %.022.i, i64 384
  %11 = load i32, ptr %10, align 8
  %.not14.i = icmp eq i32 %11, 0
  br i1 %.not14.i, label %24, label %12

12:                                               ; preds = %9
  %13 = getelementptr inbounds i8, ptr %.022.i, i64 200
  %bcmp.i = tail call i32 @bcmp(ptr noundef nonnull dereferenceable(20) %13, ptr noundef nonnull dereferenceable(20) %6, i64 20)
  %.not15.i = icmp eq i32 %bcmp.i, 0
  br i1 %.not15.i, label %14, label %24

14:                                               ; preds = %12
  %15 = load ptr, ptr %7, align 8
  %16 = getelementptr inbounds i8, ptr %.022.i, i64 328
  %17 = load ptr, ptr %16, align 8
  %18 = tail call i32 @BN_cmp(ptr noundef %15, ptr noundef %17) #10
  %.not16.i = icmp eq i32 %18, 0
  br i1 %.not16.i, label %19, label %24

19:                                               ; preds = %14
  %20 = getelementptr inbounds i8, ptr %.022.i, i64 260
  %21 = load i32, ptr %20, align 4
  %.not17.i = icmp eq i32 %21, 0
  br i1 %.not17.i, label %22, label %crtmgr_block_list_lookup.exit

22:                                               ; preds = %19
  %23 = getelementptr inbounds i8, ptr %.022.i, i64 240
  %bcmp18.i = tail call i32 @bcmp(ptr noundef nonnull dereferenceable(20) %23, ptr noundef nonnull dereferenceable(20) %8, i64 20)
  %.not19.i = icmp eq i32 %bcmp18.i, 0
  br i1 %.not19.i, label %crtmgr_block_list_lookup.exit, label %24

24:                                               ; preds = %22, %14, %12, %9
  %25 = getelementptr inbounds i8, ptr %.022.i, i64 400
  %.0.i = load ptr, ptr %25, align 8
  %.not.i = icmp eq ptr %.0.i, null
  br i1 %.not.i, label %crtmgr_block_list_lookup.exit, label %9

26:                                               ; preds = %2
  %27 = tail call ptr @crtmgr_trust_list_lookup(ptr noundef %0, ptr noundef nonnull %1, i32 noundef 0)
  br label %crtmgr_block_list_lookup.exit

crtmgr_block_list_lookup.exit:                    ; preds = %24, %22, %19, %5, %26
  %.0 = phi ptr [ %27, %26 ], [ null, %5 ], [ %.022.i, %22 ], [ %.022.i, %19 ], [ null, %24 ]
  ret ptr %.0
}